target datalayout = "e-m:e-p270:32:32-p271:32:32-p272:64:64-i64:64-i128:128-f80:128-n8:16:32:64-S128"
target triple = "x86_64-pc-linux-gnu"

%"struct.faiss::VectorDistance.18" = type { i64, float }
%"class.std::vector.5" = type { %"struct.std::_Vector_base.6" }
%"struct.std::_Vector_base.6" = type { %"struct.std::_Vector_base<float, std::allocator<float>>::_Vector_impl" }
%"struct.std::_Vector_base<float, std::allocator<float>>::_Vector_impl" = type { %"struct.std::_Vector_base<float, std::allocator<float>>::_Vector_impl_data" }
%"struct.std::_Vector_base<float, std::allocator<float>>::_Vector_impl_data" = type { ptr, ptr, ptr }
%"struct.faiss::FlatCodesDistanceComputer" = type { %"struct.faiss::DistanceComputer", ptr, i64 }
%"struct.faiss::DistanceComputer" = type { ptr }
%"struct.faiss::(anonymous namespace)::AQDistanceComputerDecompress.19" = type { %"struct.faiss::FlatCodesDistanceComputer", %"class.std::vector.5", ptr, %"struct.faiss::VectorDistance.18", i64, ptr }

; Function Attrs: mustprogress nounwind uwtable
define linkonce_odr noundef ptr @_ZNKSt6vectorIfSaIfEE11_M_data_ptrIfEEPT_S4_(ptr noundef nonnull align 8 dereferenceable(24) %0, ptr noundef %1) #0 comdat align 2 {
  %3 = alloca ptr, align 8
  %4 = alloca ptr, align 8
  store ptr %0, ptr %3, align 8
  store ptr %1, ptr %4, align 8
  %5 = load ptr, ptr %4, align 8
  ret ptr %5
}

; Function Attrs: mustprogress uwtable
define linkonce_odr noundef float @_ZNK5faiss14VectorDistanceILNS_10MetricTypeE0EEclEPKfS4_(ptr noundef nonnull align 8 dereferenceable(16) %0, ptr noundef %1, ptr noundef %2) #2 comdat align 2 {
  %4 = alloca ptr, align 8
  %5 = alloca ptr, align 8
  %6 = alloca ptr, align 8
  store ptr %0, ptr %4, align 8
  store ptr %1, ptr %5, align 8
  store ptr %2, ptr %6, align 8
  %7 = load ptr, ptr %4, align 8
  %8 = load ptr, ptr %5, align 8
  %9 = load ptr, ptr %6, align 8
  %10 = getelementptr inbounds %"struct.faiss::VectorDistance.18", ptr %7, i32 0, i32 0
  %11 = load i64, ptr %10, align 8
  %12 = call noundef float @_ZN5faiss18fvec_inner_productEPKfS1_m(ptr noundef %8, ptr noundef %9, i64 noundef %11)
  ret float %12
}

; Function Attrs: mustprogress nounwind uwtable
define linkonce_odr noundef ptr @_ZNSt6vectorIfSaIfEE4dataEv(ptr noundef nonnull align 8 dereferenceable(24) %0) #0 comdat align 2 {
  %2 = alloca ptr, align 8
  store ptr %0, ptr %2, align 8
  %3 = load ptr, ptr %2, align 8
  %4 = getelementptr inbounds %"struct.std::_Vector_base.6", ptr %3, i32 0, i32 0
  %5 = getelementptr inbounds %"struct.std::_Vector_base<float, std::allocator<float>>::_Vector_impl_data", ptr %4, i32 0, i32 0
  %6 = load ptr, ptr %5, align 8
  %7 = call noundef ptr @_ZNKSt6vectorIfSaIfEE11_M_data_ptrIfEEPT_S4_(ptr noundef nonnull align 8 dereferenceable(24) %3, ptr noundef %6) #11
  ret ptr %7
}

; Function Attrs: mustprogress uwtable
define internal noundef float @_ZN5faiss12_GLOBAL__N_128AQDistanceComputerDecompressINS_14VectorDistanceILNS_10MetricTypeE0EEEE13symmetric_disEll(ptr noundef nonnull align 8 dereferenceable(88) %0, i64 noundef %1, i64 noundef %2) unnamed_addr #2 align 2 {
  %4 = alloca ptr, align 8
  %5 = alloca i64, align 8
  %6 = alloca i64, align 8
  store ptr %0, ptr %4, align 8
  store i64 %1, ptr %5, align 8
  store i64 %2, ptr %6, align 8
  %7 = load ptr, ptr %4, align 8
  %8 = getelementptr inbounds %"struct.faiss::(anonymous namespace)::AQDistanceComputerDecompress.19", ptr %7, i32 0, i32 2
  %9 = load ptr, ptr %8, align 8
  %10 = getelementptr inbounds %"struct.faiss::FlatCodesDistanceComputer", ptr %7, i32 0, i32 1
  %11 = load ptr, ptr %10, align 8
  %12 = load i64, ptr %5, align 8
  %13 = getelementptr inbounds %"struct.faiss::(anonymous namespace)::AQDistanceComputerDecompress.19", ptr %7, i32 0, i32 4
  %14 = load i64, ptr %13, align 8
  %15 = mul i64 %12, %14
  %16 = getelementptr inbounds i8, ptr %11, i64 %15
  %17 = getelementptr inbounds %"struct.faiss::(anonymous namespace)::AQDistanceComputerDecompress.19", ptr %7, i32 0, i32 1
  %18 = call noundef ptr @_ZNSt6vectorIfSaIfEE4dataEv(ptr noundef nonnull align 8 dereferenceable(24) %17) #11
  %19 = load ptr, ptr %9, align 8
  %20 = getelementptr inbounds ptr, ptr %19, i64 2
  %21 = load ptr, ptr %20, align 8
  call void %21(ptr noundef nonnull align 8 dereferenceable(308) %9, ptr noundef %16, ptr noundef %18, i64 noundef 1)
  %22 = getelementptr inbounds %"struct.faiss::(anonymous namespace)::AQDistanceComputerDecompress.19", ptr %7, i32 0, i32 2
  %23 = load ptr, ptr %22, align 8
  %24 = getelementptr inbounds %"struct.faiss::FlatCodesDistanceComputer", ptr %7, i32 0, i32 1
  %25 = load ptr, ptr %24, align 8
  %26 = load i64, ptr %6, align 8
  %27 = getelementptr inbounds %"struct.faiss::(anonymous namespace)::AQDistanceComputerDecompress.19", ptr %7, i32 0, i32 4
  %28 = load i64, ptr %27, align 8
  %29 = mul i64 %26, %28
  %30 = getelementptr inbounds i8, ptr %25, i64 %29
  %31 = getelementptr inbounds %"struct.faiss::(anonymous namespace)::AQDistanceComputerDecompress.19", ptr %7, i32 0, i32 1
  %32 = call noundef ptr @_ZNSt6vectorIfSaIfEE4dataEv(ptr noundef nonnull align 8 dereferenceable(24) %31) #11
  %33 = getelementptr inbounds %"struct.faiss::(anonymous namespace)::AQDistanceComputerDecompress.19", ptr %7, i32 0, i32 4
  %34 = load i64, ptr %33, align 8
  %35 = getelementptr inbounds float, ptr %32, i64 %34
  %36 = load ptr, ptr %23, align 8
  %37 = getelementptr inbounds ptr, ptr %36, i64 2
  %38 = load ptr, ptr %37, align 8
  call void %38(ptr noundef nonnull align 8 dereferenceable(308) %23, ptr noundef %30, ptr noundef %35, i64 noundef 1)
  %39 = getelementptr inbounds %"struct.faiss::(anonymous namespace)::AQDistanceComputerDecompress.19", ptr %7, i32 0, i32 3
  %40 = getelementptr inbounds %"struct.faiss::(anonymous namespace)::AQDistanceComputerDecompress.19", ptr %7, i32 0, i32 1
  %41 = call noundef ptr @_ZNSt6vectorIfSaIfEE4dataEv(ptr noundef nonnull align 8 dereferenceable(24) %40) #11
  %42 = getelementptr inbounds %"struct.faiss::(anonymous namespace)::AQDistanceComputerDecompress.19", ptr %7, i32 0, i32 1
  %43 = call noundef ptr @_ZNSt6vectorIfSaIfEE4dataEv(ptr noundef nonnull align 8 dereferenceable(24) %42) #11
  %44 = getelementptr inbounds %"struct.faiss::(anonymous namespace)::AQDistanceComputerDecompress.19", ptr %7, i32 0, i32 4
  %45 = load i64, ptr %44, align 8
  %46 = getelementptr inbounds float, ptr %43, i64 %45
  %47 = call noundef float @_ZNK5faiss14VectorDistanceILNS_10MetricTypeE0EEclEPKfS4_(ptr noundef nonnull align 8 dereferenceable(16) %39, ptr noundef %41, ptr noundef %46)
  ret float %47
}