; Function Attrs: mustprogress uwtable
define internal noundef float @_ZN5faiss12_GLOBAL__N_128AQDistanceComputerDecompressINS_14VectorDistanceILNS_10MetricTypeE0EEEE13symmetric_disEll(ptr nocapture noundef nonnull readonly align 8 dereferenceable(88) %0, i64 noundef %1, i64 noundef %2) unnamed_addr #2 align 2 {
  %4 = getelementptr inbounds i8, ptr %0, i64 48
  %5 = load ptr, ptr %4, align 8
  %6 = getelementptr inbounds i8, ptr %0, i64 8
  %7 = load ptr, ptr %6, align 8
  %8 = getelementptr inbounds i8, ptr %0, i64 72
  %9 = load i64, ptr %8, align 8
  %10 = mul i64 %9, %1
  %11 = getelementptr inbounds i8, ptr %7, i64 %10
  %12 = getelementptr inbounds i8, ptr %0, i64 24
  %13 = load ptr, ptr %12, align 8
  %14 = load ptr, ptr %5, align 8
  %15 = getelementptr inbounds i8, ptr %14, i64 16
  %16 = load ptr, ptr %15, align 8
  tail call void %16(ptr noundef nonnull align 8 dereferenceable(308) %5, ptr noundef %11, ptr noundef %13, i64 noundef 1)
  %17 = load ptr, ptr %4, align 8
  %18 = load ptr, ptr %6, align 8
  %19 = load i64, ptr %8, align 8
  %20 = mul i64 %19, %2
  %21 = getelementptr inbounds i8, ptr %18, i64 %20
  %22 = load ptr, ptr %12, align 8
  %23 = getelementptr inbounds float, ptr %22, i64 %19
  %24 = load ptr, ptr %17, align 8
  %25 = getelementptr inbounds i8, ptr %24, i64 16
  %26 = load ptr, ptr %25, align 8
  tail call void %26(ptr noundef nonnull align 8 dereferenceable(308) %17, ptr noundef %21, ptr noundef %23, i64 noundef 1)
  %27 = getelementptr inbounds i8, ptr %0, i64 56
  %28 = load ptr, ptr %12, align 8
  %29 = load i64, ptr %8, align 8
  %30 = getelementptr inbounds float, ptr %28, i64 %29
  %31 = load i64, ptr %27, align 8
  %32 = tail call noundef float @_ZN5faiss18fvec_inner_productEPKfS1_m(ptr noundef %28, ptr noundef %30, i64 noundef %31)
  ret float %32
}